; Function Attrs: mustprogress uwtable
define hidden void @_ZN3ue220ComponentAlternation8optimiseEb(ptr nocapture noundef nonnull readonly align 8 dereferenceable(40) %this, i1 noundef zeroext %connected_to_sds) unnamed_addr #0 align 2 {
entry:
  %children = getelementptr inbounds i8, ptr %this, i64 16
  %0 = load ptr, ptr %children, align 8
  %_M_finish.i = getelementptr inbounds i8, ptr %this, i64 24
  %1 = load ptr, ptr %_M_finish.i, align 8
  %cmp.i.not4 = icmp eq ptr %0, %1
  br i1 %cmp.i.not4, label %for.end, label %for.body

for.body:                                         ; preds = %entry, %for.body
  %__begin1.sroa.0.05 = phi ptr [ %incdec.ptr.i, %for.body ], [ %0, %entry ]
  %2 = load ptr, ptr %__begin1.sroa.0.05, align 8
  %vtable = load ptr, ptr %2, align 8
  %vfn = getelementptr inbounds i8, ptr %vtable, i64 80
  %3 = load ptr, ptr %vfn, align 8
  tail call void %3(ptr noundef nonnull align 8 dereferenceable(16) %2, i1 noundef zeroext %connected_to_sds)
  %incdec.ptr.i = getelementptr inbounds i8, ptr %__begin1.sroa.0.05, i64 8
  %cmp.i.not = icmp eq ptr %incdec.ptr.i, %1
  br i1 %cmp.i.not, label %for.end, label %for.body

for.end:                                          ; preds = %for.body, %entry
  ret void
}